target datalayout = "e-m:e-p270:32:32-p271:32:32-p272:64:64-i64:64-i128:128-f80:128-n8:16:32:64-S128"
target triple = "x86_64-pc-linux-gnu"

%struct.nghttp2_stream = type { i32, %struct.nghttp2_pq_entry, i64, i64, i64, i64, ptr, ptr, ptr, i64, i32, i32, i32, i32, i32, i32, i32, i16, i32, i8, i8, i8, i8, i8, i8 }
%struct.nghttp2_pq_entry = type { i64 }
%struct.nghttp2_session = type { %struct.nghttp2_map, %struct.nghttp2_outbound_queue, %struct.nghttp2_outbound_queue, %struct.nghttp2_outbound_queue, [8 x %struct.anon], %struct.nghttp2_active_outbound_item, %struct.nghttp2_inbound_frame, %struct.nghttp2_hd_deflater, %struct.nghttp2_hd_inflater, %struct.nghttp2_session_callbacks, %struct.nghttp2_mem, ptr, ptr, %struct.nghttp2_ratelim, i64, i64, i64, i64, i64, i64, i64, i64, i64, i64, i64, i64, i64, i64, i32, i32, i32, i32, i32, i32, i32, i32, i32, i32, i32, i32, i8, %struct.nghttp2_settings_storage, %struct.nghttp2_settings_storage, i32, i32, i32, i8, i8, i8, i8, i8, i8, [32 x i8] }
%struct.nghttp2_map = type { ptr, ptr, i64, i64 }
%struct.nghttp2_outbound_queue = type { ptr, ptr, i64 }
%struct.anon = type { %struct.nghttp2_pq }
%struct.nghttp2_pq = type { ptr, ptr, i64, i64, ptr }
%struct.nghttp2_active_outbound_item = type { ptr, %struct.nghttp2_bufs, i32 }
%struct.nghttp2_bufs = type { ptr, ptr, ptr, i64, i64, i64, i64, i64 }
%struct.nghttp2_inbound_frame = type { %union.nghttp2_frame, %union.nghttp2_ext_frame_payload, ptr, %struct.nghttp2_buf, %struct.nghttp2_buf, ptr, i64, i64, i64, i64, i32, [32 x i8] }
%union.nghttp2_frame = type { %struct.nghttp2_headers }
%struct.nghttp2_headers = type { %struct.nghttp2_frame_hd, i64, %struct.nghttp2_priority_spec, ptr, i64, i32 }
%struct.nghttp2_frame_hd = type { i64, i32, i8, i8, i8 }
%struct.nghttp2_priority_spec = type { i32, i32, i8 }
%union.nghttp2_ext_frame_payload = type { %struct.nghttp2_ext_altsvc }
%struct.nghttp2_ext_altsvc = type { ptr, i64, ptr, i64 }
%struct.nghttp2_buf = type { ptr, ptr, ptr, ptr, ptr }
%struct.nghttp2_hd_deflater = type { %struct.nghttp2_hd_context, %struct.nghttp2_hd_map, i64, i64, i8 }
%struct.nghttp2_hd_context = type { %struct.nghttp2_hd_ringbuf, ptr, i64, i64, i32, i8 }
%struct.nghttp2_hd_ringbuf = type { ptr, i64, i64, i64 }
%struct.nghttp2_hd_map = type { [128 x ptr] }
%struct.nghttp2_hd_inflater = type { %struct.nghttp2_hd_context, %struct.nghttp2_hd_huff_decode_context, %struct.nghttp2_buf, %struct.nghttp2_buf, ptr, ptr, ptr, ptr, i64, i64, i64, i64, i64, i32, i32, i8, i8, i8 }
%struct.nghttp2_hd_huff_decode_context = type { i16 }
%struct.nghttp2_session_callbacks = type { ptr, ptr, ptr, ptr, ptr, ptr, ptr, ptr, ptr, ptr, ptr, ptr, ptr, ptr, ptr, ptr, ptr, ptr, ptr, ptr, ptr, ptr, ptr, ptr, ptr, ptr, ptr, ptr }
%struct.nghttp2_mem = type { ptr, ptr, ptr, ptr, ptr }
%struct.nghttp2_ratelim = type { i64, i64, i64, i64 }
%struct.nghttp2_settings_storage = type { i32, i32, i32, i32, i32, i32, i32, i32 }

@.str.1 = private unnamed_addr constant [115 x i8] c"generated/home/dtcxzyw/WorkSpace/Projects/compilers/llvm-opt-benchmark/bench/nghttp2/nghttp2/lib/nghttp2_session.c\00", align 1
@.str.2 = private unnamed_addr constant [37 x i8] c"stream->state == NGHTTP2_STREAM_IDLE\00", align 1
@__PRETTY_FUNCTION__.nghttp2_session_open_stream = private unnamed_addr constant [111 x i8] c"nghttp2_stream *nghttp2_session_open_stream(nghttp2_session *, int32_t, uint8_t, nghttp2_stream_state, void *)\00", align 1
@.str.3 = private unnamed_addr constant [37 x i8] c"initial_state != NGHTTP2_STREAM_IDLE\00", align 1

; Function Attrs: nounwind uwtable
define hidden i32 @nghttp2_session_is_my_stream_id(ptr noundef %0, i32 noundef %1) #0 {
  %3 = alloca i32, align 4
  %4 = alloca ptr, align 8
  %5 = alloca i32, align 4
  %6 = alloca i32, align 4
  %7 = alloca i32, align 4
  store ptr %0, ptr %4, align 8, !tbaa !7
  store i32 %1, ptr %5, align 4, !tbaa !3
  call void @llvm.lifetime.start.p0(i64 4, ptr %6) #10
  %8 = load i32, ptr %5, align 4, !tbaa !3
  %9 = icmp eq i32 %8, 0
  br i1 %9, label %10, label %11

10:                                               ; preds = %2
  store i32 0, ptr %3, align 4
  store i32 1, ptr %7, align 4
  br label %26

11:                                               ; preds = %2
  %12 = load i32, ptr %5, align 4, !tbaa !3
  %13 = and i32 %12, 1
  store i32 %13, ptr %6, align 4, !tbaa !3
  %14 = load ptr, ptr %4, align 8, !tbaa !7
  %15 = getelementptr inbounds nuw %struct.nghttp2_session, ptr %14, i32 0, i32 49
  %16 = load i8, ptr %15, align 1, !tbaa !42
  %17 = icmp ne i8 %16, 0
  br i1 %17, label %18, label %22

18:                                               ; preds = %11
  %19 = load i32, ptr %6, align 4, !tbaa !3
  %20 = icmp eq i32 %19, 0
  %21 = zext i1 %20 to i32
  store i32 %21, ptr %3, align 4
  store i32 1, ptr %7, align 4
  br label %26

22:                                               ; preds = %11
  %23 = load i32, ptr %6, align 4, !tbaa !3
  %24 = icmp eq i32 %23, 1
  %25 = zext i1 %24 to i32
  store i32 %25, ptr %3, align 4
  store i32 1, ptr %7, align 4
  br label %26

26:                                               ; preds = %22, %18, %10
  call void @llvm.lifetime.end.p0(i64 4, ptr %6) #10
  %27 = load i32, ptr %3, align 4
  ret i32 %27
}

; Function Attrs: nounwind uwtable
define hidden ptr @nghttp2_session_get_stream_raw(ptr noundef %0, i32 noundef %1) #0 {
  %3 = alloca ptr, align 8
  %4 = alloca i32, align 4
  store ptr %0, ptr %3, align 8, !tbaa !7
  store i32 %1, ptr %4, align 4, !tbaa !3
  %5 = load ptr, ptr %3, align 8, !tbaa !7
  %6 = getelementptr inbounds nuw %struct.nghttp2_session, ptr %5, i32 0, i32 0
  %7 = load i32, ptr %4, align 4, !tbaa !3
  %8 = call ptr @nghttp2_map_find(ptr noundef %6, i32 noundef %7)
  ret ptr %8
}

; Function Attrs: nounwind uwtable
define hidden ptr @nghttp2_session_open_stream(ptr noundef %0, i32 noundef %1, i8 noundef zeroext %2, i32 noundef %3, ptr noundef %4) #0 {
  %6 = alloca ptr, align 8
  %7 = alloca ptr, align 8
  %8 = alloca i32, align 4
  %9 = alloca i8, align 1
  %10 = alloca i32, align 4
  %11 = alloca ptr, align 8
  %12 = alloca i32, align 4
  %13 = alloca ptr, align 8
  %14 = alloca i32, align 4
  %15 = alloca ptr, align 8
  %16 = alloca i32, align 4
  store ptr %0, ptr %7, align 8, !tbaa !7
  store i32 %1, ptr %8, align 4, !tbaa !3
  store i8 %2, ptr %9, align 1, !tbaa !117
  store i32 %3, ptr %10, align 4, !tbaa !3
  store ptr %4, ptr %11, align 8, !tbaa !53
  call void @llvm.lifetime.start.p0(i64 4, ptr %12) #10
  call void @llvm.lifetime.start.p0(i64 8, ptr %13) #10
  call void @llvm.lifetime.start.p0(i64 4, ptr %14) #10
  store i32 0, ptr %14, align 4, !tbaa !3
  call void @llvm.lifetime.start.p0(i64 8, ptr %15) #10
  %17 = load ptr, ptr %7, align 8, !tbaa !7
  %18 = getelementptr inbounds nuw %struct.nghttp2_session, ptr %17, i32 0, i32 10
  store ptr %18, ptr %15, align 8, !tbaa !53
  %19 = load ptr, ptr %7, align 8, !tbaa !7
  %20 = load i32, ptr %8, align 4, !tbaa !3
  %21 = call ptr @nghttp2_session_get_stream_raw(ptr noundef %19, i32 noundef %20)
  store ptr %21, ptr %13, align 8, !tbaa !43
  %22 = load ptr, ptr %7, align 8, !tbaa !7
  %23 = getelementptr inbounds nuw %struct.nghttp2_session, ptr %22, i32 0, i32 43
  %24 = load i32, ptr %23, align 4, !tbaa !77
  %25 = and i32 %24, 64
  %26 = icmp ne i32 %25, 0
  br i1 %26, label %27, label %32

27:                                               ; preds = %5
  %28 = load i8, ptr %9, align 1, !tbaa !117
  %29 = zext i8 %28 to i32
  %30 = or i32 %29, 64
  %31 = trunc i32 %30 to i8
  store i8 %31, ptr %9, align 1, !tbaa !117
  br label %32

32:                                               ; preds = %27, %5
  %33 = load ptr, ptr %13, align 8, !tbaa !43
  %34 = icmp ne ptr %33, null
  br i1 %34, label %35, label %52

35:                                               ; preds = %32
  %36 = load ptr, ptr %13, align 8, !tbaa !43
  %37 = getelementptr inbounds nuw %struct.nghttp2_stream, ptr %36, i32 0, i32 0
  %38 = load i32, ptr %37, align 8, !tbaa !48
  %39 = icmp eq i32 %38, 5
  br i1 %39, label %40, label %41

40:                                               ; preds = %35
  br label %42

41:                                               ; preds = %35
  call void @__assert_fail(ptr noundef @.str.2, ptr noundef @.str.1, i32 noundef 1188, ptr noundef @__PRETTY_FUNCTION__.nghttp2_session_open_stream) #12
  unreachable

42:                                               ; preds = %40
  %43 = load i32, ptr %10, align 4, !tbaa !3
  %44 = icmp ne i32 %43, 5
  br i1 %44, label %45, label %46

45:                                               ; preds = %42
  br label %47

46:                                               ; preds = %42
  call void @__assert_fail(ptr noundef @.str.3, ptr noundef @.str.1, i32 noundef 1189, ptr noundef @__PRETTY_FUNCTION__.nghttp2_session_open_stream) #12
  unreachable

47:                                               ; preds = %45
  %48 = load ptr, ptr %7, align 8, !tbaa !7
  %49 = getelementptr inbounds nuw %struct.nghttp2_session, ptr %48, i32 0, i32 20
  %50 = load i64, ptr %49, align 8, !tbaa !129
  %51 = add i64 %50, -1
  store i64 %51, ptr %49, align 8, !tbaa !129
  br label %59

52:                                               ; preds = %32
  %53 = load ptr, ptr %15, align 8, !tbaa !53
  %54 = call ptr @nghttp2_mem_malloc(ptr noundef %53, i64 noundef 128)
  store ptr %54, ptr %13, align 8, !tbaa !43
  %55 = load ptr, ptr %13, align 8, !tbaa !43
  %56 = icmp eq ptr %55, null
  br i1 %56, label %57, label %58

57:                                               ; preds = %52
  store ptr null, ptr %6, align 8
  store i32 1, ptr %16, align 4
  br label %151

58:                                               ; preds = %52
  store i32 1, ptr %14, align 4, !tbaa !3
  br label %59

59:                                               ; preds = %58, %47
  %60 = load i32, ptr %10, align 4, !tbaa !3
  %61 = icmp eq i32 %60, 4
  br i1 %61, label %62, label %67

62:                                               ; preds = %59
  %63 = load i8, ptr %9, align 1, !tbaa !117
  %64 = zext i8 %63 to i32
  %65 = or i32 %64, 1
  %66 = trunc i32 %65 to i8
  store i8 %66, ptr %9, align 1, !tbaa !117
  br label %67

67:                                               ; preds = %62, %59
  %68 = load i32, ptr %14, align 4, !tbaa !3
  %69 = icmp ne i32 %68, 0
  br i1 %69, label %70, label %102

70:                                               ; preds = %67
  %71 = load ptr, ptr %13, align 8, !tbaa !43
  %72 = load i32, ptr %8, align 4, !tbaa !3
  %73 = load i8, ptr %9, align 1, !tbaa !117
  %74 = load i32, ptr %10, align 4, !tbaa !3
  %75 = load ptr, ptr %7, align 8, !tbaa !7
  %76 = getelementptr inbounds nuw %struct.nghttp2_session, ptr %75, i32 0, i32 41
  %77 = getelementptr inbounds nuw %struct.nghttp2_settings_storage, ptr %76, i32 0, i32 3
  %78 = load i32, ptr %77, align 4, !tbaa !130
  %79 = load ptr, ptr %7, align 8, !tbaa !7
  %80 = getelementptr inbounds nuw %struct.nghttp2_session, ptr %79, i32 0, i32 42
  %81 = getelementptr inbounds nuw %struct.nghttp2_settings_storage, ptr %80, i32 0, i32 3
  %82 = load i32, ptr %81, align 4, !tbaa !131
  %83 = load ptr, ptr %11, align 8, !tbaa !53
  call void @nghttp2_stream_init(ptr noundef %71, i32 noundef %72, i8 noundef zeroext %73, i32 noundef %74, i32 noundef %78, i32 noundef %82, ptr noundef %83)
  %84 = load ptr, ptr %7, align 8, !tbaa !7
  %85 = getelementptr inbounds nuw %struct.nghttp2_session, ptr %84, i32 0, i32 14
  %86 = load i64, ptr %85, align 8, !tbaa !132
  %87 = add i64 %86, 1
  store i64 %87, ptr %85, align 8, !tbaa !132
  %88 = load ptr, ptr %13, align 8, !tbaa !43
  %89 = getelementptr inbounds nuw %struct.nghttp2_stream, ptr %88, i32 0, i32 5
  store i64 %86, ptr %89, align 8, !tbaa !133
  %90 = load ptr, ptr %7, align 8, !tbaa !7
  %91 = getelementptr inbounds nuw %struct.nghttp2_session, ptr %90, i32 0, i32 0
  %92 = load i32, ptr %8, align 4, !tbaa !3
  %93 = load ptr, ptr %13, align 8, !tbaa !43
  %94 = call i32 @nghttp2_map_insert(ptr noundef %91, i32 noundef %92, ptr noundef %93)
  store i32 %94, ptr %12, align 4, !tbaa !3
  %95 = load i32, ptr %12, align 4, !tbaa !3
  %96 = icmp ne i32 %95, 0
  br i1 %96, label %97, label %101

97:                                               ; preds = %70
  %98 = load ptr, ptr %13, align 8, !tbaa !43
  call void @nghttp2_stream_free(ptr noundef %98)
  %99 = load ptr, ptr %15, align 8, !tbaa !53
  %100 = load ptr, ptr %13, align 8, !tbaa !43
  call void @nghttp2_mem_free(ptr noundef %99, ptr noundef %100)
  store ptr null, ptr %6, align 8
  store i32 1, ptr %16, align 4
  br label %151

101:                                              ; preds = %70
  br label %112

102:                                              ; preds = %67
  %103 = load i8, ptr %9, align 1, !tbaa !117
  %104 = load ptr, ptr %13, align 8, !tbaa !43
  %105 = getelementptr inbounds nuw %struct.nghttp2_stream, ptr %104, i32 0, i32 19
  store i8 %103, ptr %105, align 4, !tbaa !45
  %106 = load i32, ptr %10, align 4, !tbaa !3
  %107 = load ptr, ptr %13, align 8, !tbaa !43
  %108 = getelementptr inbounds nuw %struct.nghttp2_stream, ptr %107, i32 0, i32 0
  store i32 %106, ptr %108, align 8, !tbaa !48
  %109 = load ptr, ptr %11, align 8, !tbaa !53
  %110 = load ptr, ptr %13, align 8, !tbaa !43
  %111 = getelementptr inbounds nuw %struct.nghttp2_stream, ptr %110, i32 0, i32 7
  store ptr %109, ptr %111, align 8, !tbaa !134
  br label %112

112:                                              ; preds = %102, %101
  %113 = load i32, ptr %10, align 4, !tbaa !3
  switch i32 %113, label %133 [
    i32 4, label %114
    i32 5, label %128
  ]

114:                                              ; preds = %112
  %115 = load ptr, ptr %7, align 8, !tbaa !7
  %116 = load i32, ptr %8, align 4, !tbaa !3
  %117 = call i32 @nghttp2_session_is_my_stream_id(ptr noundef %115, i32 noundef %116)
  %118 = icmp ne i32 %117, 0
  br i1 %118, label %119, label %121

119:                                              ; preds = %114
  %120 = load ptr, ptr %13, align 8, !tbaa !43
  call void @nghttp2_stream_shutdown(ptr noundef %120, i32 noundef 1)
  br label %127

121:                                              ; preds = %114
  %122 = load ptr, ptr %13, align 8, !tbaa !43
  call void @nghttp2_stream_shutdown(ptr noundef %122, i32 noundef 2)
  %123 = load ptr, ptr %7, align 8, !tbaa !7
  %124 = getelementptr inbounds nuw %struct.nghttp2_session, ptr %123, i32 0, i32 17
  %125 = load i64, ptr %124, align 8, !tbaa !135
  %126 = add i64 %125, 1
  store i64 %126, ptr %124, align 8, !tbaa !135
  br label %127

127:                                              ; preds = %121, %119
  br label %149

128:                                              ; preds = %112
  %129 = load ptr, ptr %7, align 8, !tbaa !7
  %130 = getelementptr inbounds nuw %struct.nghttp2_session, ptr %129, i32 0, i32 20
  %131 = load i64, ptr %130, align 8, !tbaa !129
  %132 = add i64 %131, 1
  store i64 %132, ptr %130, align 8, !tbaa !129
  br label %149

133:                                              ; preds = %112
  %134 = load ptr, ptr %7, align 8, !tbaa !7
  %135 = load i32, ptr %8, align 4, !tbaa !3
  %136 = call i32 @nghttp2_session_is_my_stream_id(ptr noundef %134, i32 noundef %135)
  %137 = icmp ne i32 %136, 0
  br i1 %137, label %138, label %143

138:                                              ; preds = %133
  %139 = load ptr, ptr %7, align 8, !tbaa !7
  %140 = getelementptr inbounds nuw %struct.nghttp2_session, ptr %139, i32 0, i32 15
  %141 = load i64, ptr %140, align 8, !tbaa !136
  %142 = add i64 %141, 1
  store i64 %142, ptr %140, align 8, !tbaa !136
  br label %148

143:                                              ; preds = %133
  %144 = load ptr, ptr %7, align 8, !tbaa !7
  %145 = getelementptr inbounds nuw %struct.nghttp2_session, ptr %144, i32 0, i32 16
  %146 = load i64, ptr %145, align 8, !tbaa !137
  %147 = add i64 %146, 1
  store i64 %147, ptr %145, align 8, !tbaa !137
  br label %148

148:                                              ; preds = %143, %138
  br label %149

149:                                              ; preds = %148, %128, %127
  %150 = load ptr, ptr %13, align 8, !tbaa !43
  store ptr %150, ptr %6, align 8
  store i32 1, ptr %16, align 4
  br label %151

151:                                              ; preds = %149, %97, %57
  call void @llvm.lifetime.end.p0(i64 8, ptr %15) #10
  call void @llvm.lifetime.end.p0(i64 4, ptr %14) #10
  call void @llvm.lifetime.end.p0(i64 8, ptr %13) #10
  call void @llvm.lifetime.end.p0(i64 4, ptr %12) #10
  %152 = load ptr, ptr %6, align 8
  ret ptr %152
}