; Function Attrs: nounwind uwtable
define hidden ptr @nghttp2_session_open_stream(ptr noundef %0, i32 noundef %1, i8 noundef zeroext %2, i32 noundef %3, ptr noundef %4) local_unnamed_addr #1 {
  %6 = getelementptr inbounds nuw i8, ptr %0, i64 2344
  %7 = tail call ptr @nghttp2_map_find(ptr noundef %0, i32 noundef %1) #16
  %8 = getelementptr inbounds nuw i8, ptr %0, i64 2660
  %9 = load i32, ptr %8, align 4, !tbaa !74
  %10 = trunc i32 %9 to i8
  %11 = and i8 %10, 64
  %spec.select = or i8 %11, %2
  %.not53.not = icmp eq ptr %7, null
  br i1 %.not53.not, label %18, label %12

12:                                               ; preds = %5
  %13 = load i32, ptr %7, align 8, !tbaa !42
  %14 = icmp eq i32 %13, 5
  br i1 %14, label %16, label %15

15:                                               ; preds = %12
  tail call void @__assert_fail(ptr noundef nonnull @.str.2, ptr noundef nonnull @.str.1, i32 noundef 1188, ptr noundef nonnull @__PRETTY_FUNCTION__.nghttp2_session_open_stream) #17
  unreachable

16:                                               ; preds = %12
  %.not54 = icmp eq i32 %3, 5
  br i1 %.not54, label %17, label %34

17:                                               ; preds = %16
  tail call void @__assert_fail(ptr noundef nonnull @.str.3, ptr noundef nonnull @.str.1, i32 noundef 1189, ptr noundef nonnull @__PRETTY_FUNCTION__.nghttp2_session_open_stream) #17
  unreachable

18:                                               ; preds = %5
  %19 = tail call ptr @nghttp2_mem_malloc(ptr noundef nonnull %6, i64 noundef 128) #16
  %20 = icmp eq ptr %19, null
  br i1 %20, label %70, label %21

21:                                               ; preds = %18
  %22 = icmp eq i32 %3, 4
  %23 = zext i1 %22 to i8
  %spec.select5965 = or i8 %spec.select, %23
  %24 = getelementptr inbounds nuw i8, ptr %0, i64 2608
  %25 = load i32, ptr %24, align 4, !tbaa !122
  %26 = getelementptr inbounds nuw i8, ptr %0, i64 2640
  %27 = load i32, ptr %26, align 4, !tbaa !123
  tail call void @nghttp2_stream_init(ptr noundef nonnull %19, i32 noundef %1, i8 noundef zeroext %spec.select5965, i32 noundef %3, i32 noundef %25, i32 noundef %27, ptr noundef %4) #16
  %28 = getelementptr inbounds nuw i8, ptr %0, i64 2432
  %29 = load i64, ptr %28, align 8, !tbaa !124
  %30 = add i64 %29, 1
  store i64 %30, ptr %28, align 8, !tbaa !124
  %31 = getelementptr inbounds nuw i8, ptr %19, i64 40
  store i64 %29, ptr %31, align 8, !tbaa !125
  %32 = tail call i32 @nghttp2_map_insert(ptr noundef nonnull %0, i32 noundef %1, ptr noundef nonnull %19) #16
  %.not56 = icmp eq i32 %32, 0
  br i1 %.not56, label %42, label %33

33:                                               ; preds = %21
  tail call void @nghttp2_stream_free(ptr noundef nonnull %19) #16
  tail call void @nghttp2_mem_free(ptr noundef nonnull %6, ptr noundef nonnull %19) #16
  br label %70

34:                                               ; preds = %16
  %35 = getelementptr inbounds nuw i8, ptr %0, i64 2480
  %36 = load i64, ptr %35, align 8, !tbaa !126
  %37 = add i64 %36, -1
  store i64 %37, ptr %35, align 8, !tbaa !126
  %38 = icmp eq i32 %3, 4
  %39 = zext i1 %38 to i8
  %spec.select59 = or i8 %spec.select, %39
  %40 = getelementptr inbounds nuw i8, ptr %7, i64 116
  store i8 %spec.select59, ptr %40, align 4, !tbaa !38
  store i32 %3, ptr %7, align 8, !tbaa !42
  %41 = getelementptr inbounds nuw i8, ptr %7, i64 56
  store ptr %4, ptr %41, align 8, !tbaa !127
  br label %42

42:                                               ; preds = %21, %34
  %.04967 = phi ptr [ %19, %21 ], [ %7, %34 ]
  switch i32 %3, label %57 [
    i32 4, label %43
    i32 5, label %53
  ]

43:                                               ; preds = %42
  %44 = icmp eq i32 %1, 0
  br i1 %44, label %nghttp2_session_is_my_stream_id.exit.thread, label %nghttp2_session_is_my_stream_id.exit

nghttp2_session_is_my_stream_id.exit:             ; preds = %43
  %45 = getelementptr inbounds nuw i8, ptr %0, i64 2675
  %46 = load i8, ptr %45, align 1, !tbaa !37
  %47 = trunc i32 %1 to i1
  %48 = icmp eq i8 %46, 0
  %.not57 = xor i1 %48, %47
  br i1 %.not57, label %nghttp2_session_is_my_stream_id.exit.thread, label %49

49:                                               ; preds = %nghttp2_session_is_my_stream_id.exit
  tail call void @nghttp2_stream_shutdown(ptr noundef nonnull %.04967, i32 noundef 1) #16
  br label %70

nghttp2_session_is_my_stream_id.exit.thread:      ; preds = %43, %nghttp2_session_is_my_stream_id.exit
  tail call void @nghttp2_stream_shutdown(ptr noundef nonnull %.04967, i32 noundef 2) #16
  %50 = getelementptr inbounds nuw i8, ptr %0, i64 2456
  %51 = load i64, ptr %50, align 8, !tbaa !128
  %52 = add i64 %51, 1
  store i64 %52, ptr %50, align 8, !tbaa !128
  br label %70

53:                                               ; preds = %42
  %54 = getelementptr inbounds nuw i8, ptr %0, i64 2480
  %55 = load i64, ptr %54, align 8, !tbaa !126
  %56 = add i64 %55, 1
  store i64 %56, ptr %54, align 8, !tbaa !126
  br label %70

57:                                               ; preds = %42
  %58 = icmp eq i32 %1, 0
  br i1 %58, label %nghttp2_session_is_my_stream_id.exit63.thread, label %nghttp2_session_is_my_stream_id.exit63

nghttp2_session_is_my_stream_id.exit63:           ; preds = %57
  %59 = getelementptr inbounds nuw i8, ptr %0, i64 2675
  %60 = load i8, ptr %59, align 1, !tbaa !37
  %61 = trunc i32 %1 to i1
  %62 = icmp eq i8 %60, 0
  %.not58 = xor i1 %62, %61
  br i1 %.not58, label %nghttp2_session_is_my_stream_id.exit63.thread, label %63

63:                                               ; preds = %nghttp2_session_is_my_stream_id.exit63
  %64 = getelementptr inbounds nuw i8, ptr %0, i64 2440
  %65 = load i64, ptr %64, align 8, !tbaa !129
  %66 = add i64 %65, 1
  store i64 %66, ptr %64, align 8, !tbaa !129
  br label %70

nghttp2_session_is_my_stream_id.exit63.thread:    ; preds = %57, %nghttp2_session_is_my_stream_id.exit63
  %67 = getelementptr inbounds nuw i8, ptr %0, i64 2448
  %68 = load i64, ptr %67, align 8, !tbaa !130
  %69 = add i64 %68, 1
  store i64 %69, ptr %67, align 8, !tbaa !130
  br label %70

70:                                               ; preds = %53, %nghttp2_session_is_my_stream_id.exit.thread, %49, %nghttp2_session_is_my_stream_id.exit63.thread, %63, %18, %33
  %.0 = phi ptr [ null, %33 ], [ null, %18 ], [ %.04967, %63 ], [ %.04967, %nghttp2_session_is_my_stream_id.exit63.thread ], [ %.04967, %49 ], [ %.04967, %nghttp2_session_is_my_stream_id.exit.thread ], [ %.04967, %53 ]
  ret ptr %.0
}